target datalayout = "e-m:e-p270:32:32-p271:32:32-p272:64:64-i64:64-i128:128-f80:128-n8:16:32:64-S128"
target triple = "x86_64-pc-linux-gnu"

@max_alloc_size = internal global i64 2147483647, align 8
@.str = private unnamed_addr constant [30 x i8] c"Assertion %s failed at %s:%d\0A\00", align 1
@.str.1 = private unnamed_addr constant [17 x i8] c"val || !min_size\00", align 1
@.str.2 = private unnamed_addr constant [16 x i8] c"libavutil/mem.c\00", align 1

; Function Attrs: nounwind uwtable
define void @av_free(ptr noundef %0) #0 {
  %2 = alloca ptr, align 8
  store ptr %0, ptr %2, align 8, !tbaa !8
  %3 = load ptr, ptr %2, align 8, !tbaa !8
  call void @free(ptr noundef %3) #11
  ret void
}

; Function Attrs: nounwind uwtable
define noalias ptr @av_malloc(i64 noundef %0) #0 {
  %2 = alloca ptr, align 8
  %3 = alloca i64, align 8
  %4 = alloca ptr, align 8
  %5 = alloca i64, align 8
  %6 = alloca i32, align 4
  store i64 %0, ptr %3, align 8, !tbaa !4
  call void @llvm.lifetime.start.p0(i64 8, ptr %4) #11
  store ptr null, ptr %4, align 8, !tbaa !8
  %7 = load i64, ptr %3, align 8, !tbaa !4
  %8 = load atomic i64, ptr @max_alloc_size monotonic, align 8
  store i64 %8, ptr %5, align 8
  %9 = load i64, ptr %5, align 8, !tbaa !4
  %10 = icmp ugt i64 %7, %9
  br i1 %10, label %11, label %12

11:                                               ; preds = %1
  store ptr null, ptr %2, align 8
  store i32 1, ptr %6, align 4
  br label %31

12:                                               ; preds = %1
  %13 = load i64, ptr %3, align 8, !tbaa !4
  %14 = icmp ne i64 %13, 0
  br i1 %14, label %15, label %21

15:                                               ; preds = %12
  %16 = load i64, ptr %3, align 8, !tbaa !4
  %17 = call i32 @posix_memalign(ptr noundef %4, i64 noundef 16, i64 noundef %16) #11
  %18 = icmp ne i32 %17, 0
  br i1 %18, label %19, label %20

19:                                               ; preds = %15
  store ptr null, ptr %4, align 8, !tbaa !8
  br label %20

20:                                               ; preds = %19, %15
  br label %21

21:                                               ; preds = %20, %12
  %22 = load ptr, ptr %4, align 8, !tbaa !8
  %23 = icmp ne ptr %22, null
  br i1 %23, label %29, label %24

24:                                               ; preds = %21
  %25 = load i64, ptr %3, align 8, !tbaa !4
  %26 = icmp ne i64 %25, 0
  br i1 %26, label %29, label %27

27:                                               ; preds = %24
  store i64 1, ptr %3, align 8, !tbaa !4
  %28 = call noalias ptr @av_malloc(i64 noundef 1)
  store ptr %28, ptr %4, align 8, !tbaa !8
  br label %29

29:                                               ; preds = %27, %24, %21
  %30 = load ptr, ptr %4, align 8, !tbaa !8
  store ptr %30, ptr %2, align 8
  store i32 1, ptr %6, align 4
  br label %31

31:                                               ; preds = %29, %11
  call void @llvm.lifetime.end.p0(i64 8, ptr %4) #11
  %32 = load ptr, ptr %2, align 8
  ret ptr %32
}

; Function Attrs: nounwind uwtable
define noalias ptr @av_mallocz(i64 noundef %0) #0 {
  %2 = alloca i64, align 8
  %3 = alloca ptr, align 8
  store i64 %0, ptr %2, align 8, !tbaa !4
  call void @llvm.lifetime.start.p0(i64 8, ptr %3) #11
  %4 = load i64, ptr %2, align 8, !tbaa !4
  %5 = call noalias ptr @av_malloc(i64 noundef %4)
  store ptr %5, ptr %3, align 8, !tbaa !8
  %6 = load ptr, ptr %3, align 8, !tbaa !8
  %7 = icmp ne ptr %6, null
  br i1 %7, label %8, label %11

8:                                                ; preds = %1
  %9 = load ptr, ptr %3, align 8, !tbaa !8
  %10 = load i64, ptr %2, align 8, !tbaa !4
  call void @llvm.memset.p0.i64(ptr align 1 %9, i8 0, i64 %10, i1 false)
  br label %11

11:                                               ; preds = %8, %1
  %12 = load ptr, ptr %3, align 8, !tbaa !8
  call void @llvm.lifetime.end.p0(i64 8, ptr %3) #11
  ret ptr %12
}

; Function Attrs: nounwind uwtable
define void @av_freep(ptr noundef %0) #0 {
  %2 = alloca ptr, align 8
  %3 = alloca ptr, align 8
  %4 = alloca ptr, align 8
  store ptr %0, ptr %2, align 8, !tbaa !8
  call void @llvm.lifetime.start.p0(i64 8, ptr %3) #11
  %5 = load ptr, ptr %2, align 8, !tbaa !8
  call void @llvm.memcpy.p0.p0.i64(ptr align 8 %3, ptr align 1 %5, i64 8, i1 false)
  %6 = load ptr, ptr %2, align 8, !tbaa !8
  store ptr null, ptr %4, align 8, !tbaa !8
  call void @llvm.memcpy.p0.p0.i64(ptr align 1 %6, ptr align 8 %4, i64 8, i1 false)
  %7 = load ptr, ptr %3, align 8, !tbaa !8
  call void @av_free(ptr noundef %7)
  call void @llvm.lifetime.end.p0(i64 8, ptr %3) #11
  ret void
}

; Function Attrs: inlinehint nounwind uwtable
define internal void @fast_malloc(ptr noundef %0, ptr noundef %1, i64 noundef %2, i32 noundef %3) #7 {
  %5 = alloca ptr, align 8
  %6 = alloca ptr, align 8
  %7 = alloca i64, align 8
  %8 = alloca i32, align 4
  %9 = alloca i64, align 8
  %10 = alloca ptr, align 8
  %11 = alloca i32, align 4
  %12 = alloca i64, align 8
  store ptr %0, ptr %5, align 8, !tbaa !8
  store ptr %1, ptr %6, align 8, !tbaa !15
  store i64 %2, ptr %7, align 8, !tbaa !4
  store i32 %3, ptr %8, align 4, !tbaa !17
  call void @llvm.lifetime.start.p0(i64 8, ptr %9) #11
  call void @llvm.lifetime.start.p0(i64 8, ptr %10) #11
  %13 = load ptr, ptr %5, align 8, !tbaa !8
  call void @llvm.memcpy.p0.p0.i64(ptr align 8 %10, ptr align 1 %13, i64 8, i1 false)
  %14 = load i64, ptr %7, align 8, !tbaa !4
  %15 = load ptr, ptr %6, align 8, !tbaa !15
  %16 = load i32, ptr %15, align 4, !tbaa !17
  %17 = zext i32 %16 to i64
  %18 = icmp ule i64 %14, %17
  br i1 %18, label %19, label %30

19:                                               ; preds = %4
  br label %20

20:                                               ; preds = %19
  %21 = load ptr, ptr %10, align 8, !tbaa !8
  %22 = icmp ne ptr %21, null
  br i1 %22, label %27, label %23

23:                                               ; preds = %20
  %24 = load i64, ptr %7, align 8, !tbaa !4
  %25 = icmp ne i64 %24, 0
  br i1 %25, label %26, label %27

26:                                               ; preds = %23
  call void (ptr, i32, ptr, ...) @av_log(ptr noundef null, i32 noundef 0, ptr noundef @.str, ptr noundef @.str.1, ptr noundef @.str.2, i32 noundef 534)
  call void @abort() #14
  unreachable

27:                                               ; preds = %23, %20
  br label %28

28:                                               ; preds = %27
  br label %29

29:                                               ; preds = %28
  store i32 1, ptr %11, align 4
  br label %107

30:                                               ; preds = %4
  %31 = load atomic i64, ptr @max_alloc_size monotonic, align 8
  store i64 %31, ptr %12, align 8
  %32 = load i64, ptr %12, align 8, !tbaa !4
  store i64 %32, ptr %9, align 8, !tbaa !4
  %33 = load i64, ptr %9, align 8, !tbaa !4
  %34 = icmp ugt i64 %33, 4294967295
  br i1 %34, label %35, label %36

35:                                               ; preds = %30
  br label %38

36:                                               ; preds = %30
  %37 = load i64, ptr %9, align 8, !tbaa !4
  br label %38

38:                                               ; preds = %36, %35
  %39 = phi i64 [ 4294967295, %35 ], [ %37, %36 ]
  store i64 %39, ptr %9, align 8, !tbaa !4
  %40 = load i64, ptr %7, align 8, !tbaa !4
  %41 = load i64, ptr %9, align 8, !tbaa !4
  %42 = icmp ugt i64 %40, %41
  br i1 %42, label %43, label %46

43:                                               ; preds = %38
  %44 = load ptr, ptr %5, align 8, !tbaa !8
  call void @av_freep(ptr noundef %44)
  %45 = load ptr, ptr %6, align 8, !tbaa !15
  store i32 0, ptr %45, align 4, !tbaa !17
  store i32 1, ptr %11, align 4
  br label %107

46:                                               ; preds = %38
  %47 = load i64, ptr %9, align 8, !tbaa !4
  %48 = load i64, ptr %7, align 8, !tbaa !4
  %49 = load i64, ptr %7, align 8, !tbaa !4
  %50 = udiv i64 %49, 16
  %51 = add i64 %48, %50
  %52 = add i64 %51, 32
  %53 = load i64, ptr %7, align 8, !tbaa !4
  %54 = icmp ugt i64 %52, %53
  br i1 %54, label %55, label %61

55:                                               ; preds = %46
  %56 = load i64, ptr %7, align 8, !tbaa !4
  %57 = load i64, ptr %7, align 8, !tbaa !4
  %58 = udiv i64 %57, 16
  %59 = add i64 %56, %58
  %60 = add i64 %59, 32
  br label %63

61:                                               ; preds = %46
  %62 = load i64, ptr %7, align 8, !tbaa !4
  br label %63

63:                                               ; preds = %61, %55
  %64 = phi i64 [ %60, %55 ], [ %62, %61 ]
  %65 = icmp ugt i64 %47, %64
  br i1 %65, label %66, label %84

66:                                               ; preds = %63
  %67 = load i64, ptr %7, align 8, !tbaa !4
  %68 = load i64, ptr %7, align 8, !tbaa !4
  %69 = udiv i64 %68, 16
  %70 = add i64 %67, %69
  %71 = add i64 %70, 32
  %72 = load i64, ptr %7, align 8, !tbaa !4
  %73 = icmp ugt i64 %71, %72
  br i1 %73, label %74, label %80

74:                                               ; preds = %66
  %75 = load i64, ptr %7, align 8, !tbaa !4
  %76 = load i64, ptr %7, align 8, !tbaa !4
  %77 = udiv i64 %76, 16
  %78 = add i64 %75, %77
  %79 = add i64 %78, 32
  br label %82

80:                                               ; preds = %66
  %81 = load i64, ptr %7, align 8, !tbaa !4
  br label %82

82:                                               ; preds = %80, %74
  %83 = phi i64 [ %79, %74 ], [ %81, %80 ]
  br label %86

84:                                               ; preds = %63
  %85 = load i64, ptr %9, align 8, !tbaa !4
  br label %86

86:                                               ; preds = %84, %82
  %87 = phi i64 [ %83, %82 ], [ %85, %84 ]
  store i64 %87, ptr %7, align 8, !tbaa !4
  %88 = load ptr, ptr %5, align 8, !tbaa !8
  call void @av_freep(ptr noundef %88)
  %89 = load i32, ptr %8, align 4, !tbaa !17
  %90 = icmp ne i32 %89, 0
  br i1 %90, label %91, label %94

91:                                               ; preds = %86
  %92 = load i64, ptr %7, align 8, !tbaa !4
  %93 = call noalias ptr @av_mallocz(i64 noundef %92)
  br label %97

94:                                               ; preds = %86
  %95 = load i64, ptr %7, align 8, !tbaa !4
  %96 = call noalias ptr @av_malloc(i64 noundef %95)
  br label %97

97:                                               ; preds = %94, %91
  %98 = phi ptr [ %93, %91 ], [ %96, %94 ]
  store ptr %98, ptr %10, align 8, !tbaa !8
  %99 = load ptr, ptr %5, align 8, !tbaa !8
  call void @llvm.memcpy.p0.p0.i64(ptr align 1 %99, ptr align 8 %10, i64 8, i1 false)
  %100 = load ptr, ptr %10, align 8, !tbaa !8
  %101 = icmp ne ptr %100, null
  br i1 %101, label %103, label %102

102:                                              ; preds = %97
  store i64 0, ptr %7, align 8, !tbaa !4
  br label %103

103:                                              ; preds = %102, %97
  %104 = load i64, ptr %7, align 8, !tbaa !4
  %105 = trunc i64 %104 to i32
  %106 = load ptr, ptr %6, align 8, !tbaa !15
  store i32 %105, ptr %106, align 4, !tbaa !17
  store i32 1, ptr %11, align 4
  br label %107

107:                                              ; preds = %103, %43, %29
  call void @llvm.lifetime.end.p0(i64 8, ptr %10) #11
  call void @llvm.lifetime.end.p0(i64 8, ptr %9) #11
  ret void
}