; Function Attrs: inlinehint nounwind uwtable
define internal fastcc void @fast_malloc(ptr noundef captures(none) %0, ptr noundef captures(none) %1, i64 noundef %2, i32 noundef range(i32 0, 2) %3) unnamed_addr #14 {
  %5 = alloca ptr, align 8
  %6 = alloca ptr, align 8
  %7 = load i32, ptr %1, align 4, !tbaa !9
  %8 = zext i32 %7 to i64
  %.not = icmp ugt i64 %2, %8
  br i1 %.not, label %13, label %9

9:                                                ; preds = %4
  %.0.copyload = load ptr, ptr %0, align 1
  %10 = icmp eq ptr %.0.copyload, null
  %11 = icmp ne i64 %2, 0
  %or.cond = and i1 %11, %10
  br i1 %or.cond, label %12, label %37

12:                                               ; preds = %9
  tail call void (ptr, i32, ptr, ...) @av_log(ptr noundef null, i32 noundef 0, ptr noundef nonnull @.str, ptr noundef nonnull @.str.1, ptr noundef nonnull @.str.2, i32 noundef 534) #21
  tail call void @abort() #24
  unreachable

13:                                               ; preds = %4
  %14 = load atomic i64, ptr @max_alloc_size monotonic, align 8
  %15 = tail call i64 @llvm.umin.i64(i64 %14, i64 4294967295)
  %16 = icmp ugt i64 %2, %15
  br i1 %16, label %17, label %18

17:                                               ; preds = %13
  %.0.copyload1.i = load ptr, ptr %0, align 1
  store ptr null, ptr %0, align 1
  tail call void @free(ptr noundef %.0.copyload1.i) #21
  br label %.sink.split

18:                                               ; preds = %13
  %19 = lshr i64 %2, 4
  %20 = add nuw nsw i64 %2, 32
  %21 = add nuw nsw i64 %20, %19
  %. = tail call i64 @llvm.umax.i64(i64 %21, i64 %2)
  %22 = tail call i64 @llvm.umin.i64(i64 %15, i64 %.)
  %.0.copyload1.i42 = load ptr, ptr %0, align 1
  store ptr null, ptr %0, align 1
  tail call void @free(ptr noundef %.0.copyload1.i42) #21
  %.not39 = icmp eq i32 %3, 0
  br i1 %.not39, label %29, label %23

23:                                               ; preds = %18
  call void @llvm.lifetime.start.p0(i64 8, ptr nonnull %6) #21
  store ptr null, ptr %6, align 8, !tbaa !4
  %24 = load atomic i64, ptr @max_alloc_size monotonic, align 8
  %25 = icmp ugt i64 %22, %24
  br i1 %25, label %av_malloc.exit.thread.i, label %26

26:                                               ; preds = %23
  %27 = call i32 @posix_memalign(ptr noundef nonnull %6, i64 noundef 16, i64 noundef %22) #21
  %.not.i.i = icmp eq i32 %27, 0
  %.pre11.i.i = load ptr, ptr %6, align 8
  br i1 %.not.i.i, label %av_malloc.exit.i, label %av_malloc.exit.thread.i

av_malloc.exit.thread.i:                          ; preds = %26, %23
  call void @llvm.lifetime.end.p0(i64 8, ptr nonnull %6) #21
  br label %av_mallocz.exit

av_malloc.exit.i:                                 ; preds = %26
  call void @llvm.lifetime.end.p0(i64 8, ptr nonnull %6) #21
  %.not.i = icmp eq ptr %.pre11.i.i, null
  br i1 %.not.i, label %av_mallocz.exit, label %28

28:                                               ; preds = %av_malloc.exit.i
  call void @llvm.memset.p0.i64(ptr nonnull align 1 %.pre11.i.i, i8 0, i64 %22, i1 false)
  br label %av_mallocz.exit

29:                                               ; preds = %18
  call void @llvm.lifetime.start.p0(i64 8, ptr nonnull %5) #21
  store ptr null, ptr %5, align 8, !tbaa !4
  %30 = load atomic i64, ptr @max_alloc_size monotonic, align 8
  %31 = icmp ugt i64 %22, %30
  br i1 %31, label %av_malloc.exit, label %32

32:                                               ; preds = %29
  %33 = call i32 @posix_memalign(ptr noundef nonnull %5, i64 noundef 16, i64 noundef %22) #21
  %.not.i43 = icmp eq i32 %33, 0
  %.pre11.i = load ptr, ptr %5, align 8
  %spec.select.i = select i1 %.not.i43, ptr %.pre11.i, ptr null
  br label %av_malloc.exit

av_malloc.exit:                                   ; preds = %29, %32
  %.0.i = phi ptr [ null, %29 ], [ %spec.select.i, %32 ]
  call void @llvm.lifetime.end.p0(i64 8, ptr nonnull %5) #21
  br label %av_mallocz.exit

av_mallocz.exit:                                  ; preds = %28, %av_malloc.exit.i, %av_malloc.exit.thread.i, %av_malloc.exit
  %34 = phi ptr [ %.0.i, %av_malloc.exit ], [ null, %av_malloc.exit.thread.i ], [ %.pre11.i.i, %28 ], [ null, %av_malloc.exit.i ]
  store ptr %34, ptr %0, align 1
  %.not40 = icmp eq ptr %34, null
  %35 = trunc nuw i64 %22 to i32
  %36 = select i1 %.not40, i32 0, i32 %35
  br label %.sink.split

.sink.split:                                      ; preds = %17, %av_mallocz.exit
  %.sink = phi i32 [ %36, %av_mallocz.exit ], [ 0, %17 ]
  store i32 %.sink, ptr %1, align 4, !tbaa !9
  br label %37

37:                                               ; preds = %.sink.split, %9
  ret void
}